; Function Attrs: nounwind uwtable
define internal fastcc i32 @ftp_state_size(ptr noundef %0, ptr noundef %1) unnamed_addr #0 {
  %3 = getelementptr inbounds nuw i8, ptr %0, i64 440
  %4 = load ptr, ptr %3, align 8, !tbaa !20
  %5 = getelementptr inbounds nuw i8, ptr %1, i64 1088
  %6 = getelementptr inbounds nuw i8, ptr %4, i64 16
  %7 = load i32, ptr %6, align 8, !tbaa !95
  %8 = icmp eq i32 %7, 1
  br i1 %8, label %9, label %37

9:                                                ; preds = %2
  %10 = getelementptr inbounds nuw i8, ptr %1, i64 1272
  %11 = load ptr, ptr %10, align 8, !tbaa !143
  %.not = icmp eq ptr %11, null
  br i1 %.not, label %37, label %12

12:                                               ; preds = %9
  %13 = tail call i32 (ptr, ptr, ptr, ...) @Curl_pp_sendf(ptr noundef nonnull %0, ptr noundef nonnull %5, ptr noundef nonnull @.str.73, ptr noundef nonnull %11) #10
  %.not13 = icmp eq i32 %13, 0
  br i1 %.not13, label %14, label %39

14:                                               ; preds = %12
  %15 = getelementptr inbounds nuw i8, ptr %0, i64 24
  %16 = load ptr, ptr %15, align 8, !tbaa !105
  %17 = getelementptr inbounds nuw i8, ptr %16, i64 1358
  %18 = load i8, ptr %17, align 2, !tbaa !136
  %.not14 = icmp eq i8 %18, 23
  br i1 %.not14, label %_ftp_state.exit, label %19

19:                                               ; preds = %14
  %20 = getelementptr inbounds nuw i8, ptr %0, i64 2658
  %21 = load i64, ptr %20, align 2
  %22 = and i64 %21, 2147483648
  %.not.i = icmp eq i64 %22, 0
  br i1 %.not.i, label %_ftp_state.exit, label %23

23:                                               ; preds = %19
  %24 = getelementptr inbounds nuw i8, ptr %0, i64 4864
  %25 = load ptr, ptr %24, align 8, !tbaa !102
  %.not20.i = icmp eq ptr %25, null
  br i1 %.not20.i, label %32, label %26

26:                                               ; preds = %23
  %27 = getelementptr inbounds nuw i8, ptr %25, i64 8
  %28 = load i32, ptr %27, align 8, !tbaa !103
  %29 = icmp sgt i32 %28, 0
  %30 = load i32, ptr getelementptr inbounds nuw (i8, ptr @Curl_trc_feat_ftp, i64 8), align 8
  %31 = icmp sgt i32 %30, 0
  %or.cond.i = select i1 %29, i1 %31, i1 false
  br i1 %or.cond.i, label %33, label %_ftp_state.exit

32:                                               ; preds = %23
  %.old.i = load i32, ptr getelementptr inbounds nuw (i8, ptr @Curl_trc_feat_ftp, i64 8), align 8, !tbaa !103
  %.old1.i = icmp sgt i32 %.old.i, 0
  br i1 %.old1.i, label %33, label %_ftp_state.exit

33:                                               ; preds = %32, %26
  %34 = zext i8 %18 to i64
  %35 = getelementptr inbounds nuw [35 x ptr], ptr @ftp_state_names, i64 0, i64 %34
  %36 = load ptr, ptr %35, align 8, !tbaa !7
  tail call void (ptr, ptr, ...) @Curl_trc_ftp(ptr noundef nonnull %0, ptr noundef nonnull @.str.7, ptr noundef %36, ptr noundef nonnull @.str.32) #10
  br label %_ftp_state.exit

_ftp_state.exit:                                  ; preds = %14, %19, %26, %32, %33
  store i8 23, ptr %17, align 2, !tbaa !136
  br label %39

37:                                               ; preds = %9, %2
  %38 = tail call fastcc i32 @ftp_state_rest(ptr noundef nonnull %0, ptr noundef %1)
  br label %39

39:                                               ; preds = %12, %_ftp_state.exit, %37
  %.0 = phi i32 [ %13, %12 ], [ 0, %_ftp_state.exit ], [ %38, %37 ]
  ret i32 %.0
}